ARM GAS  C:\Users\user\AppData\Local\Temp\ccRYpVC2.s 			page 1


   1              		.cpu cortex-m0
   2              		.fpu softvfp
   3              		.eabi_attribute 20, 1
   4              		.eabi_attribute 21, 1
   5              		.eabi_attribute 23, 3
   6              		.eabi_attribute 24, 1
   7              		.eabi_attribute 25, 1
   8              		.eabi_attribute 26, 1
   9              		.eabi_attribute 30, 4
  10              		.eabi_attribute 34, 0
  11              		.eabi_attribute 18, 4
  12              		.code	16
  13              		.file	"BLE_gatt.c"
  14              		.text
  15              	.Ltext0:
  16              		.cfi_sections	.debug_frame
  17              		.section	.text.CyBle_GattsReInitGattDb,"ax",%progbits
  18              		.align	1
  19              		.global	CyBle_GattsReInitGattDb
  20              		.code	16
  21              		.thumb_func
  22              		.type	CyBle_GattsReInitGattDb, %function
  23              	CyBle_GattsReInitGattDb:
  24              	.LFB2:
  25              		.file 1 ".\\Generated_Source\\PSoC4\\BLE_gatt.c"
   1:.\Generated_Source\PSoC4/BLE_gatt.c **** /*******************************************************************************
   2:.\Generated_Source\PSoC4/BLE_gatt.c **** File Name: CYBLE_gatt.c
   3:.\Generated_Source\PSoC4/BLE_gatt.c **** Version 1.10
   4:.\Generated_Source\PSoC4/BLE_gatt.c **** 
   5:.\Generated_Source\PSoC4/BLE_gatt.c **** Description:
   6:.\Generated_Source\PSoC4/BLE_gatt.c ****  This file contains the source code for the GATT API of the BLE Component.
   7:.\Generated_Source\PSoC4/BLE_gatt.c **** 
   8:.\Generated_Source\PSoC4/BLE_gatt.c **** ********************************************************************************
   9:.\Generated_Source\PSoC4/BLE_gatt.c **** Copyright 2014, Cypress Semiconductor Corporation.  All rights reserved.
  10:.\Generated_Source\PSoC4/BLE_gatt.c **** You may use this file only in accordance with the license, terms, conditions,
  11:.\Generated_Source\PSoC4/BLE_gatt.c **** disclaimers, and limitations in the end user license agreement accompanying
  12:.\Generated_Source\PSoC4/BLE_gatt.c **** the software package with which this file was provided.
  13:.\Generated_Source\PSoC4/BLE_gatt.c **** *******************************************************************************/
  14:.\Generated_Source\PSoC4/BLE_gatt.c **** 
  15:.\Generated_Source\PSoC4/BLE_gatt.c **** 
  16:.\Generated_Source\PSoC4/BLE_gatt.c **** #include "BLE_eventHandler.h"
  17:.\Generated_Source\PSoC4/BLE_gatt.c **** 
  18:.\Generated_Source\PSoC4/BLE_gatt.c **** 
  19:.\Generated_Source\PSoC4/BLE_gatt.c **** /***************************************
  20:.\Generated_Source\PSoC4/BLE_gatt.c **** ##Global variables
  21:.\Generated_Source\PSoC4/BLE_gatt.c **** ***************************************/
  22:.\Generated_Source\PSoC4/BLE_gatt.c **** 
  23:.\Generated_Source\PSoC4/BLE_gatt.c **** CYBLE_STATE_T cyBle_state;
  24:.\Generated_Source\PSoC4/BLE_gatt.c **** 
  25:.\Generated_Source\PSoC4/BLE_gatt.c **** 
  26:.\Generated_Source\PSoC4/BLE_gatt.c **** #if(CYBLE_GATT_ROLE_SERVER)
  27:.\Generated_Source\PSoC4/BLE_gatt.c ****     
  28:.\Generated_Source\PSoC4/BLE_gatt.c ****     const CYBLE_GATTS_T cyBle_gatts =
  29:.\Generated_Source\PSoC4/BLE_gatt.c **** {
  30:.\Generated_Source\PSoC4/BLE_gatt.c ****     0x0008u,    /* Handle of the GATT service */
  31:.\Generated_Source\PSoC4/BLE_gatt.c ****     0x000Au,    /* Handle of the Service Changed characteristic */
  32:.\Generated_Source\PSoC4/BLE_gatt.c ****     0x000Bu,    /* Handle of the Client Characteristic Configuration descriptor */
ARM GAS  C:\Users\user\AppData\Local\Temp\ccRYpVC2.s 			page 2


  33:.\Generated_Source\PSoC4/BLE_gatt.c **** };
  34:.\Generated_Source\PSoC4/BLE_gatt.c ****     
  35:.\Generated_Source\PSoC4/BLE_gatt.c ****     static uint8 cyBle_attValues[0x61u] = {
  36:.\Generated_Source\PSoC4/BLE_gatt.c **** /* Device Name */
  37:.\Generated_Source\PSoC4/BLE_gatt.c **** (uint8)'C', (uint8)'o', (uint8)'n', (uint8)'n', (uint8)'e', (uint8)'c', (uint8)'t', (uint8)'i', (ui
  38:.\Generated_Source\PSoC4/BLE_gatt.c **** (uint8)' ', (uint8)'P', (uint8)'a', (uint8)'r', (uint8)'a', (uint8)'m', (uint8)'e', (uint8)'t', (ui
  39:.\Generated_Source\PSoC4/BLE_gatt.c **** (uint8)'s', (uint8)' ', (uint8)'D', (uint8)'e', (uint8)'m', (uint8)'o', 
  40:.\Generated_Source\PSoC4/BLE_gatt.c **** 
  41:.\Generated_Source\PSoC4/BLE_gatt.c **** /* Appearance */
  42:.\Generated_Source\PSoC4/BLE_gatt.c **** 0x00u, 0x00u, 
  43:.\Generated_Source\PSoC4/BLE_gatt.c **** 
  44:.\Generated_Source\PSoC4/BLE_gatt.c **** /* Peripheral Preferred Connection Parameters */
  45:.\Generated_Source\PSoC4/BLE_gatt.c **** 0x06u, 0x00u, 0x28u, 0x00u, 0x00u, 0x00u, 0xE8u, 0x03u, 
  46:.\Generated_Source\PSoC4/BLE_gatt.c **** 
  47:.\Generated_Source\PSoC4/BLE_gatt.c **** /* Service Changed */
  48:.\Generated_Source\PSoC4/BLE_gatt.c **** 0x00u, 0x00u, 0x00u, 0x00u, 
  49:.\Generated_Source\PSoC4/BLE_gatt.c **** 
  50:.\Generated_Source\PSoC4/BLE_gatt.c **** /* Manufacturer Name String */
  51:.\Generated_Source\PSoC4/BLE_gatt.c **** (uint8)'C', (uint8)'y', (uint8)'p', (uint8)'r', (uint8)'e', (uint8)'s', (uint8)'s', (uint8)' ', (ui
  52:.\Generated_Source\PSoC4/BLE_gatt.c **** (uint8)'m', (uint8)'i', (uint8)'c', (uint8)'o', (uint8)'n', (uint8)'d', (uint8)'u', (uint8)'c', (ui
  53:.\Generated_Source\PSoC4/BLE_gatt.c **** (uint8)'r', 
  54:.\Generated_Source\PSoC4/BLE_gatt.c **** 
  55:.\Generated_Source\PSoC4/BLE_gatt.c **** /* Model Number String */
  56:.\Generated_Source\PSoC4/BLE_gatt.c **** (uint8)'C', (uint8)'Y', (uint8)'8', (uint8)'C', (uint8)'K', (uint8)'I', (uint8)'T', (uint8)'-', (ui
  57:.\Generated_Source\PSoC4/BLE_gatt.c **** (uint8)'2', 
  58:.\Generated_Source\PSoC4/BLE_gatt.c **** 
  59:.\Generated_Source\PSoC4/BLE_gatt.c **** /* Serial Number String */
  60:.\Generated_Source\PSoC4/BLE_gatt.c **** (uint8)'1', 
  61:.\Generated_Source\PSoC4/BLE_gatt.c **** 
  62:.\Generated_Source\PSoC4/BLE_gatt.c **** /* Hardware Revision String */
  63:.\Generated_Source\PSoC4/BLE_gatt.c **** (uint8)'*', (uint8)'*', 
  64:.\Generated_Source\PSoC4/BLE_gatt.c **** 
  65:.\Generated_Source\PSoC4/BLE_gatt.c **** /* Firmware Revision String */
  66:.\Generated_Source\PSoC4/BLE_gatt.c **** (uint8)'1', (uint8)'.', (uint8)'0', 
  67:.\Generated_Source\PSoC4/BLE_gatt.c **** 
  68:.\Generated_Source\PSoC4/BLE_gatt.c **** /* Software Revision String */
  69:.\Generated_Source\PSoC4/BLE_gatt.c **** (uint8)'1', (uint8)'.', (uint8)'0', 
  70:.\Generated_Source\PSoC4/BLE_gatt.c **** 
  71:.\Generated_Source\PSoC4/BLE_gatt.c **** /* System ID */
  72:.\Generated_Source\PSoC4/BLE_gatt.c **** 0x00u, 0x00u, 0x00u, 0x00u, 0x00u, 0x00u, 0x00u, 0x00u, 
  73:.\Generated_Source\PSoC4/BLE_gatt.c **** 
  74:.\Generated_Source\PSoC4/BLE_gatt.c **** /* IEEE 11073-20601 Regulatory Certification Data List */
  75:.\Generated_Source\PSoC4/BLE_gatt.c **** 0x00u, 
  76:.\Generated_Source\PSoC4/BLE_gatt.c **** 
  77:.\Generated_Source\PSoC4/BLE_gatt.c **** /* PnP ID */
  78:.\Generated_Source\PSoC4/BLE_gatt.c **** 0x01u, 0x00u, 0x00u, 0x00u, 0x00u, 0x00u, 0x00u, 
  79:.\Generated_Source\PSoC4/BLE_gatt.c **** 
  80:.\Generated_Source\PSoC4/BLE_gatt.c **** };
  81:.\Generated_Source\PSoC4/BLE_gatt.c **** 
  82:.\Generated_Source\PSoC4/BLE_gatt.c **** #if defined(__GNUC__) || defined(__ARMCC_VERSION)
  83:.\Generated_Source\PSoC4/BLE_gatt.c **** const uint8 cyBle_attValuesCCCDFlashMemory[CYBLE_GAP_MAX_BONDED_DEVICE + 1u][CYBLE_GATT_DB_CCCD_COU
  84:.\Generated_Source\PSoC4/BLE_gatt.c **** #elif defined(__ICCARM__)
  85:.\Generated_Source\PSoC4/BLE_gatt.c **** /* The cyBle_attValuesCCCDFlashMemory[] should be aligned to the size of a Flash row */
  86:.\Generated_Source\PSoC4/BLE_gatt.c **** #pragma data_alignment=CY_FLASH_SIZEOF_ROW
  87:.\Generated_Source\PSoC4/BLE_gatt.c **** const uint8 cyBle_attValuesCCCDFlashMemory[CYBLE_GAP_MAX_BONDED_DEVICE + 1u][CYBLE_GATT_DB_CCCD_COU
  88:.\Generated_Source\PSoC4/BLE_gatt.c **** #endif /* defined(__GNUC__) || defined(__ARMCC_VERSION) */
  89:.\Generated_Source\PSoC4/BLE_gatt.c **** {
ARM GAS  C:\Users\user\AppData\Local\Temp\ccRYpVC2.s 			page 3


  90:.\Generated_Source\PSoC4/BLE_gatt.c **** /* Client Characteristic Configuration */
  91:.\Generated_Source\PSoC4/BLE_gatt.c **** 0x00u, 0x00u, 
  92:.\Generated_Source\PSoC4/BLE_gatt.c **** 
  93:.\Generated_Source\PSoC4/BLE_gatt.c **** },
  94:.\Generated_Source\PSoC4/BLE_gatt.c **** {
  95:.\Generated_Source\PSoC4/BLE_gatt.c **** /* Client Characteristic Configuration */
  96:.\Generated_Source\PSoC4/BLE_gatt.c **** 0x00u, 0x00u, 
  97:.\Generated_Source\PSoC4/BLE_gatt.c **** 
  98:.\Generated_Source\PSoC4/BLE_gatt.c **** },
  99:.\Generated_Source\PSoC4/BLE_gatt.c **** {
 100:.\Generated_Source\PSoC4/BLE_gatt.c **** /* Client Characteristic Configuration */
 101:.\Generated_Source\PSoC4/BLE_gatt.c **** 0x00u, 0x00u, 
 102:.\Generated_Source\PSoC4/BLE_gatt.c **** 
 103:.\Generated_Source\PSoC4/BLE_gatt.c **** },
 104:.\Generated_Source\PSoC4/BLE_gatt.c **** {
 105:.\Generated_Source\PSoC4/BLE_gatt.c **** /* Client Characteristic Configuration */
 106:.\Generated_Source\PSoC4/BLE_gatt.c **** 0x00u, 0x00u, 
 107:.\Generated_Source\PSoC4/BLE_gatt.c **** 
 108:.\Generated_Source\PSoC4/BLE_gatt.c **** },
 109:.\Generated_Source\PSoC4/BLE_gatt.c **** {
 110:.\Generated_Source\PSoC4/BLE_gatt.c **** /* Client Characteristic Configuration */
 111:.\Generated_Source\PSoC4/BLE_gatt.c **** 0x00u, 0x00u, 
 112:.\Generated_Source\PSoC4/BLE_gatt.c **** 
 113:.\Generated_Source\PSoC4/BLE_gatt.c **** },
 114:.\Generated_Source\PSoC4/BLE_gatt.c **** };
 115:.\Generated_Source\PSoC4/BLE_gatt.c **** uint8 cyBle_attValuesCCCD[CYBLE_GATT_DB_CCCD_COUNT];
 116:.\Generated_Source\PSoC4/BLE_gatt.c **** 
 117:.\Generated_Source\PSoC4/BLE_gatt.c **** const CYBLE_GATTS_DB_T cyBle_gattDB[0x1Eu] = {
 118:.\Generated_Source\PSoC4/BLE_gatt.c **** { 0x0001u, 0x2800u /* Primary service                     */, 0x00000001u /*        */, 0x0007u, {{
 119:.\Generated_Source\PSoC4/BLE_gatt.c **** { 0x0002u, 0x2803u /* Characteristic                      */, 0x00000201u /* rd     */, 0x0003u, {{
 120:.\Generated_Source\PSoC4/BLE_gatt.c **** { 0x0003u, 0x2A00u /* Device Name                         */, 0x00000201u /* rd     */, 0x0003u, {{
 121:.\Generated_Source\PSoC4/BLE_gatt.c **** { 0x0004u, 0x2803u /* Characteristic                      */, 0x00000201u /* rd     */, 0x0005u, {{
 122:.\Generated_Source\PSoC4/BLE_gatt.c **** { 0x0005u, 0x2A01u /* Appearance                          */, 0x00000201u /* rd     */, 0x0005u, {{
 123:.\Generated_Source\PSoC4/BLE_gatt.c **** { 0x0006u, 0x2803u /* Characteristic                      */, 0x00000201u /* rd     */, 0x0007u, {{
 124:.\Generated_Source\PSoC4/BLE_gatt.c **** { 0x0007u, 0x2A04u /* Peripheral Preferred Connection Par */, 0x00000201u /* rd     */, 0x0007u, {{
 125:.\Generated_Source\PSoC4/BLE_gatt.c **** { 0x0008u, 0x2800u /* Primary service                     */, 0x00000001u /*        */, 0x000Bu, {{
 126:.\Generated_Source\PSoC4/BLE_gatt.c **** { 0x0009u, 0x2803u /* Characteristic                      */, 0x00002201u /* rd,ind */, 0x000Bu, {{
 127:.\Generated_Source\PSoC4/BLE_gatt.c **** { 0x000Au, 0x2A05u /* Service Changed                     */, 0x00002201u /* rd,ind */, 0x000Bu, {{
 128:.\Generated_Source\PSoC4/BLE_gatt.c **** { 0x000Bu, 0x2902u /* Client Characteristic Configuration */, 0x00000A04u /* rd,wr  */, 0x000Bu, {{
 129:.\Generated_Source\PSoC4/BLE_gatt.c **** { 0x000Cu, 0x2800u /* Primary service                     */, 0x00000001u /*        */, 0x001Eu, {{
 130:.\Generated_Source\PSoC4/BLE_gatt.c **** { 0x000Du, 0x2803u /* Characteristic                      */, 0x00000201u /* rd     */, 0x000Eu, {{
 131:.\Generated_Source\PSoC4/BLE_gatt.c **** { 0x000Eu, 0x2A29u /* Manufacturer Name String            */, 0x00000201u /* rd     */, 0x000Eu, {{
 132:.\Generated_Source\PSoC4/BLE_gatt.c **** { 0x000Fu, 0x2803u /* Characteristic                      */, 0x00000201u /* rd     */, 0x0010u, {{
 133:.\Generated_Source\PSoC4/BLE_gatt.c **** { 0x0010u, 0x2A24u /* Model Number String                 */, 0x00000201u /* rd     */, 0x0010u, {{
 134:.\Generated_Source\PSoC4/BLE_gatt.c **** { 0x0011u, 0x2803u /* Characteristic                      */, 0x00000201u /* rd     */, 0x0012u, {{
 135:.\Generated_Source\PSoC4/BLE_gatt.c **** { 0x0012u, 0x2A25u /* Serial Number String                */, 0x00000201u /* rd     */, 0x0012u, {{
 136:.\Generated_Source\PSoC4/BLE_gatt.c **** { 0x0013u, 0x2803u /* Characteristic                      */, 0x00000201u /* rd     */, 0x0014u, {{
 137:.\Generated_Source\PSoC4/BLE_gatt.c **** { 0x0014u, 0x2A27u /* Hardware Revision String            */, 0x00000201u /* rd     */, 0x0014u, {{
 138:.\Generated_Source\PSoC4/BLE_gatt.c **** { 0x0015u, 0x2803u /* Characteristic                      */, 0x00000201u /* rd     */, 0x0016u, {{
 139:.\Generated_Source\PSoC4/BLE_gatt.c **** { 0x0016u, 0x2A26u /* Firmware Revision String            */, 0x00000201u /* rd     */, 0x0016u, {{
 140:.\Generated_Source\PSoC4/BLE_gatt.c **** { 0x0017u, 0x2803u /* Characteristic                      */, 0x00000201u /* rd     */, 0x0018u, {{
 141:.\Generated_Source\PSoC4/BLE_gatt.c **** { 0x0018u, 0x2A28u /* Software Revision String            */, 0x00000201u /* rd     */, 0x0018u, {{
 142:.\Generated_Source\PSoC4/BLE_gatt.c **** { 0x0019u, 0x2803u /* Characteristic                      */, 0x00000201u /* rd     */, 0x001Au, {{
 143:.\Generated_Source\PSoC4/BLE_gatt.c **** { 0x001Au, 0x2A23u /* System ID                           */, 0x00000201u /* rd     */, 0x001Au, {{
 144:.\Generated_Source\PSoC4/BLE_gatt.c **** { 0x001Bu, 0x2803u /* Characteristic                      */, 0x00000201u /* rd     */, 0x001Cu, {{
 145:.\Generated_Source\PSoC4/BLE_gatt.c **** { 0x001Cu, 0x2A2Au /* IEEE 11073-20601 Regulatory Certifi */, 0x00000201u /* rd     */, 0x001Cu, {{
 146:.\Generated_Source\PSoC4/BLE_gatt.c **** { 0x001Du, 0x2803u /* Characteristic                      */, 0x00000201u /* rd     */, 0x001Eu, {{
ARM GAS  C:\Users\user\AppData\Local\Temp\ccRYpVC2.s 			page 4


 147:.\Generated_Source\PSoC4/BLE_gatt.c **** { 0x001Eu, 0x2A50u /* PnP ID                              */, 0x00000201u /* rd     */, 0x001Eu, {{
 148:.\Generated_Source\PSoC4/BLE_gatt.c **** };
 149:.\Generated_Source\PSoC4/BLE_gatt.c **** 
 150:.\Generated_Source\PSoC4/BLE_gatt.c **** 
 151:.\Generated_Source\PSoC4/BLE_gatt.c **** #endif /* (CYBLE_GATT_ROLE_SERVER) */
 152:.\Generated_Source\PSoC4/BLE_gatt.c **** 
 153:.\Generated_Source\PSoC4/BLE_gatt.c **** #if(CYBLE_GATT_ROLE_CLIENT)
 154:.\Generated_Source\PSoC4/BLE_gatt.c ****     
 155:.\Generated_Source\PSoC4/BLE_gatt.c **** CYBLE_CLIENT_STATE_T cyBle_clientState;
 156:.\Generated_Source\PSoC4/BLE_gatt.c **** CYBLE_GATTC_T cyBle_gattc;
 157:.\Generated_Source\PSoC4/BLE_gatt.c ****     
 158:.\Generated_Source\PSoC4/BLE_gatt.c **** #endif /* (CYBLE_GATT_ROLE_CLIENT) */
 159:.\Generated_Source\PSoC4/BLE_gatt.c **** 
 160:.\Generated_Source\PSoC4/BLE_gatt.c **** 
 161:.\Generated_Source\PSoC4/BLE_gatt.c **** #if(CYBLE_GATT_ROLE_SERVER)
 162:.\Generated_Source\PSoC4/BLE_gatt.c **** 
 163:.\Generated_Source\PSoC4/BLE_gatt.c **** /****************************************************************************** 
 164:.\Generated_Source\PSoC4/BLE_gatt.c **** ##Function Name: CyBle_GattsReInitGattDb
 165:.\Generated_Source\PSoC4/BLE_gatt.c **** *******************************************************************************
 166:.\Generated_Source\PSoC4/BLE_gatt.c **** 
 167:.\Generated_Source\PSoC4/BLE_gatt.c **** Summary:
 168:.\Generated_Source\PSoC4/BLE_gatt.c ****  Reinitializes the GATT database.
 169:.\Generated_Source\PSoC4/BLE_gatt.c **** 
 170:.\Generated_Source\PSoC4/BLE_gatt.c **** Parameters:
 171:.\Generated_Source\PSoC4/BLE_gatt.c ****  None
 172:.\Generated_Source\PSoC4/BLE_gatt.c **** 
 173:.\Generated_Source\PSoC4/BLE_gatt.c **** Return:
 174:.\Generated_Source\PSoC4/BLE_gatt.c ****  CYBLE_API_RESULT_T: An API result states if the API succeeded or failed with
 175:.\Generated_Source\PSoC4/BLE_gatt.c ****  error codes:
 176:.\Generated_Source\PSoC4/BLE_gatt.c ****   * CYBLE_ERROR_OK: GATT database was reinitialized successfully
 177:.\Generated_Source\PSoC4/BLE_gatt.c ****   * CYBLE_ERROR_INVALID_STATE: If the function is called in any state except
 178:.\Generated_Source\PSoC4/BLE_gatt.c ****                                 CYBLE_STATE_DISCONNECTED.
 179:.\Generated_Source\PSoC4/BLE_gatt.c ****   * Any of the CyBle_GattsDbRegister() stack API function return values.
 180:.\Generated_Source\PSoC4/BLE_gatt.c **** 
 181:.\Generated_Source\PSoC4/BLE_gatt.c **** ******************************************************************************/
 182:.\Generated_Source\PSoC4/BLE_gatt.c **** CYBLE_API_RESULT_T CyBle_GattsReInitGattDb(void)
 183:.\Generated_Source\PSoC4/BLE_gatt.c **** {
  26              		.loc 1 183 0
  27              		.cfi_startproc
  28 0000 08B5     		push	{r3, lr}
  29              		.cfi_def_cfa_offset 8
  30              		.cfi_offset 3, -8
  31              		.cfi_offset 14, -4
 184:.\Generated_Source\PSoC4/BLE_gatt.c ****     CYBLE_API_RESULT_T apiResult;
 185:.\Generated_Source\PSoC4/BLE_gatt.c ****     
 186:.\Generated_Source\PSoC4/BLE_gatt.c ****     if(CYBLE_STATE_DISCONNECTED == CyBle_GetState())
  32              		.loc 1 186 0
  33 0002 064B     		ldr	r3, .L5
 187:.\Generated_Source\PSoC4/BLE_gatt.c ****     {
 188:.\Generated_Source\PSoC4/BLE_gatt.c ****         apiResult = CyBle_GattsDbRegister(cyBle_gattDB, CYBLE_GATT_DB_INDEX_COUNT, CYBLE_GATT_DB_MA
 189:.\Generated_Source\PSoC4/BLE_gatt.c ****     }
 190:.\Generated_Source\PSoC4/BLE_gatt.c ****     else
 191:.\Generated_Source\PSoC4/BLE_gatt.c ****     {
 192:.\Generated_Source\PSoC4/BLE_gatt.c ****         apiResult = CYBLE_ERROR_INVALID_STATE;
  34              		.loc 1 192 0
  35 0004 8320     		mov	r0, #131
 186:.\Generated_Source\PSoC4/BLE_gatt.c ****     if(CYBLE_STATE_DISCONNECTED == CyBle_GetState())
ARM GAS  C:\Users\user\AppData\Local\Temp\ccRYpVC2.s 			page 5


  36              		.loc 1 186 0
  37 0006 1B78     		ldrb	r3, [r3]
  38              		.loc 1 192 0
  39 0008 4000     		lsl	r0, r0, #1
 186:.\Generated_Source\PSoC4/BLE_gatt.c ****     if(CYBLE_STATE_DISCONNECTED == CyBle_GetState())
  40              		.loc 1 186 0
  41 000a 042B     		cmp	r3, #4
  42 000c 04D1     		bne	.L2
 188:.\Generated_Source\PSoC4/BLE_gatt.c ****         apiResult = CyBle_GattsDbRegister(cyBle_gattDB, CYBLE_GATT_DB_INDEX_COUNT, CYBLE_GATT_DB_MA
  43              		.loc 1 188 0
  44 000e 0448     		ldr	r0, .L5+4
  45 0010 1E21     		mov	r1, #30
  46 0012 1A22     		mov	r2, #26
  47 0014 FFF7FEFF 		bl	CyBle_GattsDbRegister
  48              	.LVL0:
  49              	.L2:
 193:.\Generated_Source\PSoC4/BLE_gatt.c ****     }
 194:.\Generated_Source\PSoC4/BLE_gatt.c ****     
 195:.\Generated_Source\PSoC4/BLE_gatt.c ****     return(apiResult);
 196:.\Generated_Source\PSoC4/BLE_gatt.c **** }
  50              		.loc 1 196 0
  51              		@ sp needed
  52 0018 08BD     		pop	{r3, pc}
  53              	.L6:
  54 001a C046     		.align	2
  55              	.L5:
  56 001c 00000000 		.word	cyBle_state
  57 0020 00000000 		.word	.LANCHOR0
  58              		.cfi_endproc
  59              	.LFE2:
  60              		.size	CyBle_GattsReInitGattDb, .-CyBle_GattsReInitGattDb
  61              		.section	.text.CyBle_GattsWriteEventHandler,"ax",%progbits
  62              		.align	1
  63              		.global	CyBle_GattsWriteEventHandler
  64              		.code	16
  65              		.thumb_func
  66              		.type	CyBle_GattsWriteEventHandler, %function
  67              	CyBle_GattsWriteEventHandler:
  68              	.LFB3:
 197:.\Generated_Source\PSoC4/BLE_gatt.c **** 
 198:.\Generated_Source\PSoC4/BLE_gatt.c **** 
 199:.\Generated_Source\PSoC4/BLE_gatt.c **** /****************************************************************************** 
 200:.\Generated_Source\PSoC4/BLE_gatt.c **** ##Function Name: CyBle_GattsWriteEventHandler
 201:.\Generated_Source\PSoC4/BLE_gatt.c **** *******************************************************************************
 202:.\Generated_Source\PSoC4/BLE_gatt.c **** 
 203:.\Generated_Source\PSoC4/BLE_gatt.c **** Summary:
 204:.\Generated_Source\PSoC4/BLE_gatt.c ****  Handles the Write Request Event for GATT service.
 205:.\Generated_Source\PSoC4/BLE_gatt.c **** 
 206:.\Generated_Source\PSoC4/BLE_gatt.c **** Parameters:
 207:.\Generated_Source\PSoC4/BLE_gatt.c ****  *eventParam: The pointer to the data structure specified by the event.
 208:.\Generated_Source\PSoC4/BLE_gatt.c **** 
 209:.\Generated_Source\PSoC4/BLE_gatt.c **** Return:
 210:.\Generated_Source\PSoC4/BLE_gatt.c ****  * CYBLE_GATT_ERR_CODE_T: An API result returns one of the following status 
 211:.\Generated_Source\PSoC4/BLE_gatt.c ****     values
 212:.\Generated_Source\PSoC4/BLE_gatt.c ****  * CYBLE_GATT_ERR_NONE - Write is successful.
 213:.\Generated_Source\PSoC4/BLE_gatt.c **** 
 214:.\Generated_Source\PSoC4/BLE_gatt.c **** ******************************************************************************/
ARM GAS  C:\Users\user\AppData\Local\Temp\ccRYpVC2.s 			page 6


 215:.\Generated_Source\PSoC4/BLE_gatt.c **** CYBLE_GATT_ERR_CODE_T CyBle_GattsWriteEventHandler(CYBLE_GATTS_WRITE_REQ_PARAM_T *eventParam)
 216:.\Generated_Source\PSoC4/BLE_gatt.c **** {
  69              		.loc 1 216 0
  70              		.cfi_startproc
  71              	.LVL1:
  72 0000 38B5     		push	{r3, r4, r5, lr}
  73              		.cfi_def_cfa_offset 16
  74              		.cfi_offset 3, -16
  75              		.cfi_offset 4, -12
  76              		.cfi_offset 5, -8
  77              		.cfi_offset 14, -4
 217:.\Generated_Source\PSoC4/BLE_gatt.c ****     CYBLE_GATT_ERR_CODE_T gattErr = CYBLE_GATT_ERR_NONE;
 218:.\Generated_Source\PSoC4/BLE_gatt.c ****     
 219:.\Generated_Source\PSoC4/BLE_gatt.c ****     /* Client Characteristic Configuration descriptor write request */
 220:.\Generated_Source\PSoC4/BLE_gatt.c ****     if(eventParam->handleValPair.attrHandle == cyBle_gatts.cccdHandle)
  78              		.loc 1 220 0
  79 0002 8389     		ldrh	r3, [r0, #12]
 216:.\Generated_Source\PSoC4/BLE_gatt.c **** {
  80              		.loc 1 216 0
  81 0004 041C     		mov	r4, r0
 217:.\Generated_Source\PSoC4/BLE_gatt.c ****     CYBLE_GATT_ERR_CODE_T gattErr = CYBLE_GATT_ERR_NONE;
  82              		.loc 1 217 0
  83 0006 0025     		mov	r5, #0
  84              		.loc 1 220 0
  85 0008 0B2B     		cmp	r3, #11
  86 000a 1AD1     		bne	.L8
 221:.\Generated_Source\PSoC4/BLE_gatt.c ****     {
 222:.\Generated_Source\PSoC4/BLE_gatt.c ****         /* Store value to database */
 223:.\Generated_Source\PSoC4/BLE_gatt.c ****         gattErr = CyBle_GattsWriteAttributeValue(&eventParam->handleValPair, 0u, 
  87              		.loc 1 223 0
  88 000c 291C     		mov	r1, r5
  89 000e 0430     		add	r0, r0, #4
  90              	.LVL2:
  91 0010 221C     		mov	r2, r4
  92 0012 4023     		mov	r3, #64
  93 0014 FFF7FEFF 		bl	CyBle_GattsWriteAttributeValue
  94              	.LVL3:
  95 0018 051E     		sub	r5, r0, #0
  96              	.LVL4:
 224:.\Generated_Source\PSoC4/BLE_gatt.c ****                         &eventParam->connHandle, CYBLE_GATT_DB_PEER_INITIATED);
 225:.\Generated_Source\PSoC4/BLE_gatt.c ****         
 226:.\Generated_Source\PSoC4/BLE_gatt.c ****         if(CYBLE_GATT_ERR_NONE == gattErr)
  97              		.loc 1 226 0
  98 001a 0DD1     		bne	.L9
 227:.\Generated_Source\PSoC4/BLE_gatt.c ****         {
 228:.\Generated_Source\PSoC4/BLE_gatt.c ****             if(CYBLE_IS_INDICATION_ENABLED_IN_PTR(eventParam->handleValPair.value.val))
  99              		.loc 1 228 0
 100 001c 6068     		ldr	r0, [r4, #4]
 101              	.LVL5:
 102 001e FFF7FEFF 		bl	CyBle_Get16ByPtr
 103              	.LVL6:
 104 0022 094B     		ldr	r3, .L13
 229:.\Generated_Source\PSoC4/BLE_gatt.c ****             {
 230:.\Generated_Source\PSoC4/BLE_gatt.c ****                 CyBle_ApplCallback((uint32)CYBLE_EVT_GATTS_INDICATION_ENABLED, eventParam);
 105              		.loc 1 230 0
 106 0024 1B68     		ldr	r3, [r3]
 228:.\Generated_Source\PSoC4/BLE_gatt.c ****             if(CYBLE_IS_INDICATION_ENABLED_IN_PTR(eventParam->handleValPair.value.val))
ARM GAS  C:\Users\user\AppData\Local\Temp\ccRYpVC2.s 			page 7


 107              		.loc 1 228 0
 108 0026 8207     		lsl	r2, r0, #30
 109 0028 02D5     		bpl	.L10
 110              		.loc 1 230 0
 111 002a 8220     		mov	r0, #130
 112 002c 4000     		lsl	r0, r0, #1
 113 002e 01E0     		b	.L12
 114              	.L10:
 231:.\Generated_Source\PSoC4/BLE_gatt.c ****             }
 232:.\Generated_Source\PSoC4/BLE_gatt.c ****             else
 233:.\Generated_Source\PSoC4/BLE_gatt.c ****             {
 234:.\Generated_Source\PSoC4/BLE_gatt.c ****                 CyBle_ApplCallback((uint32)CYBLE_EVT_GATTS_INDICATION_DISABLED, eventParam);
 115              		.loc 1 234 0
 116 0030 0620     		mov	r0, #6
 117 0032 FF30     		add	r0, r0, #255
 118              	.L12:
 119 0034 211C     		mov	r1, r4
 120 0036 9847     		blx	r3
 121              	.LVL7:
 122              	.L9:
 235:.\Generated_Source\PSoC4/BLE_gatt.c ****             }
 236:.\Generated_Source\PSoC4/BLE_gatt.c ****         }
 237:.\Generated_Source\PSoC4/BLE_gatt.c ****         cyBle_eventHandlerFlag &= (uint8)~CYBLE_CALLBACK;
 123              		.loc 1 237 0
 124 0038 044B     		ldr	r3, .L13+4
 125 003a 0121     		mov	r1, #1
 126 003c 1A78     		ldrb	r2, [r3]
 127 003e 8A43     		bic	r2, r1
 128 0040 1A70     		strb	r2, [r3]
 129              	.LVL8:
 130              	.L8:
 238:.\Generated_Source\PSoC4/BLE_gatt.c ****     }
 239:.\Generated_Source\PSoC4/BLE_gatt.c ****     return (gattErr);
 240:.\Generated_Source\PSoC4/BLE_gatt.c **** }
 131              		.loc 1 240 0
 132 0042 281C     		mov	r0, r5
 133              		@ sp needed
 134              	.LVL9:
 135              	.LVL10:
 136 0044 38BD     		pop	{r3, r4, r5, pc}
 137              	.L14:
 138 0046 C046     		.align	2
 139              	.L13:
 140 0048 00000000 		.word	CyBle_ApplCallback
 141 004c 00000000 		.word	cyBle_eventHandlerFlag
 142              		.cfi_endproc
 143              	.LFE3:
 144              		.size	CyBle_GattsWriteEventHandler, .-CyBle_GattsWriteEventHandler
 145              		.global	cyBle_gattDB
 146              		.comm	cyBle_attValuesCCCD,2,1
 147              		.global	cyBle_attValuesCCCDFlashMemory
 148              		.global	cyBle_gatts
 149              		.comm	cyBle_state,1,1
 150              		.section	.rodata
 151              		.align	7
 152              		.set	.LANCHOR0,. + 0
 153              		.type	cyBle_gattDB, %object
ARM GAS  C:\Users\user\AppData\Local\Temp\ccRYpVC2.s 			page 8


 154              		.size	cyBle_gattDB, 600
 155              	cyBle_gattDB:
 156 0000 0100     		.short	1
 157 0002 0028     		.short	10240
 158 0004 01000000 		.word	1
 159 0008 0700     		.short	7
 160 000a 0000     		.space	2
 161 000c 0018     		.short	6144
 162 000e 0000     		.space	2
 163 0010 00000000 		.word	0
 164 0014 0200     		.short	2
 165 0016 0328     		.short	10243
 166 0018 01020000 		.word	513
 167 001c 0300     		.short	3
 168 001e 0000     		.space	2
 169 0020 002A     		.short	10752
 170 0022 0000     		.space	2
 171 0024 00000000 		.word	0
 172 0028 0300     		.short	3
 173 002a 002A     		.short	10752
 174 002c 01020000 		.word	513
 175 0030 0300     		.short	3
 176 0032 0000     		.space	2
 177 0034 1A00     		.short	26
 178 0036 0000     		.space	2
 179 0038 00000000 		.word	cyBle_attValues
 180 003c 0400     		.short	4
 181 003e 0328     		.short	10243
 182 0040 01020000 		.word	513
 183 0044 0500     		.short	5
 184 0046 0000     		.space	2
 185 0048 012A     		.short	10753
 186 004a 0000     		.space	2
 187 004c 00000000 		.word	0
 188 0050 0500     		.short	5
 189 0052 012A     		.short	10753
 190 0054 01020000 		.word	513
 191 0058 0500     		.short	5
 192 005a 0000     		.space	2
 193 005c 0200     		.short	2
 194 005e 0000     		.space	2
 195 0060 1A000000 		.word	cyBle_attValues+26
 196 0064 0600     		.short	6
 197 0066 0328     		.short	10243
 198 0068 01020000 		.word	513
 199 006c 0700     		.short	7
 200 006e 0000     		.space	2
 201 0070 042A     		.short	10756
 202 0072 0000     		.space	2
 203 0074 00000000 		.word	0
 204 0078 0700     		.short	7
 205 007a 042A     		.short	10756
 206 007c 01020000 		.word	513
 207 0080 0700     		.short	7
 208 0082 0000     		.space	2
 209 0084 0800     		.short	8
 210 0086 0000     		.space	2
ARM GAS  C:\Users\user\AppData\Local\Temp\ccRYpVC2.s 			page 9


 211 0088 1C000000 		.word	cyBle_attValues+28
 212 008c 0800     		.short	8
 213 008e 0028     		.short	10240
 214 0090 01000000 		.word	1
 215 0094 0B00     		.short	11
 216 0096 0000     		.space	2
 217 0098 0118     		.short	6145
 218 009a 0000     		.space	2
 219 009c 00000000 		.word	0
 220 00a0 0900     		.short	9
 221 00a2 0328     		.short	10243
 222 00a4 01220000 		.word	8705
 223 00a8 0B00     		.short	11
 224 00aa 0000     		.space	2
 225 00ac 052A     		.short	10757
 226 00ae 0000     		.space	2
 227 00b0 00000000 		.word	0
 228 00b4 0A00     		.short	10
 229 00b6 052A     		.short	10757
 230 00b8 01220000 		.word	8705
 231 00bc 0B00     		.short	11
 232 00be 0000     		.space	2
 233 00c0 0400     		.short	4
 234 00c2 0000     		.space	2
 235 00c4 24000000 		.word	cyBle_attValues+36
 236 00c8 0B00     		.short	11
 237 00ca 0229     		.short	10498
 238 00cc 040A0000 		.word	2564
 239 00d0 0B00     		.short	11
 240 00d2 0000     		.space	2
 241 00d4 0200     		.short	2
 242 00d6 0000     		.space	2
 243 00d8 00000000 		.word	cyBle_attValuesCCCD
 244 00dc 0C00     		.short	12
 245 00de 0028     		.short	10240
 246 00e0 01000000 		.word	1
 247 00e4 1E00     		.short	30
 248 00e6 0000     		.space	2
 249 00e8 0A18     		.short	6154
 250 00ea 0000     		.space	2
 251 00ec 00000000 		.word	0
 252 00f0 0D00     		.short	13
 253 00f2 0328     		.short	10243
 254 00f4 01020000 		.word	513
 255 00f8 0E00     		.short	14
 256 00fa 0000     		.space	2
 257 00fc 292A     		.short	10793
 258 00fe 0000     		.space	2
 259 0100 00000000 		.word	0
 260 0104 0E00     		.short	14
 261 0106 292A     		.short	10793
 262 0108 01020000 		.word	513
 263 010c 0E00     		.short	14
 264 010e 0000     		.space	2
 265 0110 1500     		.short	21
 266 0112 0000     		.space	2
 267 0114 28000000 		.word	cyBle_attValues+40
ARM GAS  C:\Users\user\AppData\Local\Temp\ccRYpVC2.s 			page 10


 268 0118 0F00     		.short	15
 269 011a 0328     		.short	10243
 270 011c 01020000 		.word	513
 271 0120 1000     		.short	16
 272 0122 0000     		.space	2
 273 0124 242A     		.short	10788
 274 0126 0000     		.space	2
 275 0128 00000000 		.word	0
 276 012c 1000     		.short	16
 277 012e 242A     		.short	10788
 278 0130 01020000 		.word	513
 279 0134 1000     		.short	16
 280 0136 0000     		.space	2
 281 0138 0B00     		.short	11
 282 013a 0000     		.space	2
 283 013c 3D000000 		.word	cyBle_attValues+61
 284 0140 1100     		.short	17
 285 0142 0328     		.short	10243
 286 0144 01020000 		.word	513
 287 0148 1200     		.short	18
 288 014a 0000     		.space	2
 289 014c 252A     		.short	10789
 290 014e 0000     		.space	2
 291 0150 00000000 		.word	0
 292 0154 1200     		.short	18
 293 0156 252A     		.short	10789
 294 0158 01020000 		.word	513
 295 015c 1200     		.short	18
 296 015e 0000     		.space	2
 297 0160 0100     		.short	1
 298 0162 0000     		.space	2
 299 0164 48000000 		.word	cyBle_attValues+72
 300 0168 1300     		.short	19
 301 016a 0328     		.short	10243
 302 016c 01020000 		.word	513
 303 0170 1400     		.short	20
 304 0172 0000     		.space	2
 305 0174 272A     		.short	10791
 306 0176 0000     		.space	2
 307 0178 00000000 		.word	0
 308 017c 1400     		.short	20
 309 017e 272A     		.short	10791
 310 0180 01020000 		.word	513
 311 0184 1400     		.short	20
 312 0186 0000     		.space	2
 313 0188 0200     		.short	2
 314 018a 0000     		.space	2
 315 018c 49000000 		.word	cyBle_attValues+73
 316 0190 1500     		.short	21
 317 0192 0328     		.short	10243
 318 0194 01020000 		.word	513
 319 0198 1600     		.short	22
 320 019a 0000     		.space	2
 321 019c 262A     		.short	10790
 322 019e 0000     		.space	2
 323 01a0 00000000 		.word	0
 324 01a4 1600     		.short	22
ARM GAS  C:\Users\user\AppData\Local\Temp\ccRYpVC2.s 			page 11


 325 01a6 262A     		.short	10790
 326 01a8 01020000 		.word	513
 327 01ac 1600     		.short	22
 328 01ae 0000     		.space	2
 329 01b0 0300     		.short	3
 330 01b2 0000     		.space	2
 331 01b4 4B000000 		.word	cyBle_attValues+75
 332 01b8 1700     		.short	23
 333 01ba 0328     		.short	10243
 334 01bc 01020000 		.word	513
 335 01c0 1800     		.short	24
 336 01c2 0000     		.space	2
 337 01c4 282A     		.short	10792
 338 01c6 0000     		.space	2
 339 01c8 00000000 		.word	0
 340 01cc 1800     		.short	24
 341 01ce 282A     		.short	10792
 342 01d0 01020000 		.word	513
 343 01d4 1800     		.short	24
 344 01d6 0000     		.space	2
 345 01d8 0300     		.short	3
 346 01da 0000     		.space	2
 347 01dc 4E000000 		.word	cyBle_attValues+78
 348 01e0 1900     		.short	25
 349 01e2 0328     		.short	10243
 350 01e4 01020000 		.word	513
 351 01e8 1A00     		.short	26
 352 01ea 0000     		.space	2
 353 01ec 232A     		.short	10787
 354 01ee 0000     		.space	2
 355 01f0 00000000 		.word	0
 356 01f4 1A00     		.short	26
 357 01f6 232A     		.short	10787
 358 01f8 01020000 		.word	513
 359 01fc 1A00     		.short	26
 360 01fe 0000     		.space	2
 361 0200 0800     		.short	8
 362 0202 0000     		.space	2
 363 0204 51000000 		.word	cyBle_attValues+81
 364 0208 1B00     		.short	27
 365 020a 0328     		.short	10243
 366 020c 01020000 		.word	513
 367 0210 1C00     		.short	28
 368 0212 0000     		.space	2
 369 0214 2A2A     		.short	10794
 370 0216 0000     		.space	2
 371 0218 00000000 		.word	0
 372 021c 1C00     		.short	28
 373 021e 2A2A     		.short	10794
 374 0220 01020000 		.word	513
 375 0224 1C00     		.short	28
 376 0226 0000     		.space	2
 377 0228 0100     		.short	1
 378 022a 0000     		.space	2
 379 022c 59000000 		.word	cyBle_attValues+89
 380 0230 1D00     		.short	29
 381 0232 0328     		.short	10243
ARM GAS  C:\Users\user\AppData\Local\Temp\ccRYpVC2.s 			page 12


 382 0234 01020000 		.word	513
 383 0238 1E00     		.short	30
 384 023a 0000     		.space	2
 385 023c 502A     		.short	10832
 386 023e 0000     		.space	2
 387 0240 00000000 		.word	0
 388 0244 1E00     		.short	30
 389 0246 502A     		.short	10832
 390 0248 01020000 		.word	513
 391 024c 1E00     		.short	30
 392 024e 0000     		.space	2
 393 0250 0700     		.short	7
 394 0252 0000     		.space	2
 395 0254 5A000000 		.word	cyBle_attValues+90
 396 0258 00000000 		.space	40
 396      00000000 
 396      00000000 
 396      00000000 
 396      00000000 
 397              		.type	cyBle_attValuesCCCDFlashMemory, %object
 398              		.size	cyBle_attValuesCCCDFlashMemory, 10
 399              	cyBle_attValuesCCCDFlashMemory:
 400 0280 00000000 		.space	10
 400      00000000 
 400      0000
 401              		.type	cyBle_gatts, %object
 402              		.size	cyBle_gatts, 6
 403              	cyBle_gatts:
 404 028a 0800     		.short	8
 405 028c 0A00     		.short	10
 406 028e 0B00     		.short	11
 407 0290 00000000 		.data
 407      00000000 
 407      00000000 
 407      00000000 
 407      00000000 
 408              		.type	cyBle_attValues, %object
 409              		.size	cyBle_attValues, 97
 410              	cyBle_attValues:
 411 0000 43       		.byte	67
 412 0001 6F       		.byte	111
 413 0002 6E       		.byte	110
 414 0003 6E       		.byte	110
 415 0004 65       		.byte	101
 416 0005 63       		.byte	99
 417 0006 74       		.byte	116
 418 0007 69       		.byte	105
 419 0008 6F       		.byte	111
 420 0009 6E       		.byte	110
 421 000a 20       		.byte	32
 422 000b 50       		.byte	80
 423 000c 61       		.byte	97
 424 000d 72       		.byte	114
 425 000e 61       		.byte	97
 426 000f 6D       		.byte	109
 427 0010 65       		.byte	101
 428 0011 74       		.byte	116
ARM GAS  C:\Users\user\AppData\Local\Temp\ccRYpVC2.s 			page 13


 429 0012 65       		.byte	101
 430 0013 72       		.byte	114
 431 0014 73       		.byte	115
 432 0015 20       		.byte	32
 433 0016 44       		.byte	68
 434 0017 65       		.byte	101
 435 0018 6D       		.byte	109
 436 0019 6F       		.byte	111
 437 001a 00       		.byte	0
 438 001b 00       		.byte	0
 439 001c 06       		.byte	6
 440 001d 00       		.byte	0
 441 001e 28       		.byte	40
 442 001f 00       		.byte	0
 443 0020 00       		.byte	0
 444 0021 00       		.byte	0
 445 0022 E8       		.byte	-24
 446 0023 03       		.byte	3
 447 0024 00       		.byte	0
 448 0025 00       		.byte	0
 449 0026 00       		.byte	0
 450 0027 00       		.byte	0
 451 0028 43       		.byte	67
 452 0029 79       		.byte	121
 453 002a 70       		.byte	112
 454 002b 72       		.byte	114
 455 002c 65       		.byte	101
 456 002d 73       		.byte	115
 457 002e 73       		.byte	115
 458 002f 20       		.byte	32
 459 0030 53       		.byte	83
 460 0031 65       		.byte	101
 461 0032 6D       		.byte	109
 462 0033 69       		.byte	105
 463 0034 63       		.byte	99
 464 0035 6F       		.byte	111
 465 0036 6E       		.byte	110
 466 0037 64       		.byte	100
 467 0038 75       		.byte	117
 468 0039 63       		.byte	99
 469 003a 74       		.byte	116
 470 003b 6F       		.byte	111
 471 003c 72       		.byte	114
 472 003d 43       		.byte	67
 473 003e 59       		.byte	89
 474 003f 38       		.byte	56
 475 0040 43       		.byte	67
 476 0041 4B       		.byte	75
 477 0042 49       		.byte	73
 478 0043 54       		.byte	84
 479 0044 2D       		.byte	45
 480 0045 30       		.byte	48
 481 0046 34       		.byte	52
 482 0047 32       		.byte	50
 483 0048 31       		.byte	49
 484 0049 2A       		.byte	42
 485 004a 2A       		.byte	42
ARM GAS  C:\Users\user\AppData\Local\Temp\ccRYpVC2.s 			page 14


 486 004b 31       		.byte	49
 487 004c 2E       		.byte	46
 488 004d 30       		.byte	48
 489 004e 31       		.byte	49
 490 004f 2E       		.byte	46
 491 0050 30       		.byte	48
 492 0051 00       		.byte	0
 493 0052 00       		.byte	0
 494 0053 00       		.byte	0
 495 0054 00       		.byte	0
 496 0055 00       		.byte	0
 497 0056 00       		.byte	0
 498 0057 00       		.byte	0
 499 0058 00       		.byte	0
 500 0059 00       		.byte	0
 501 005a 01       		.byte	1
 502 005b 00       		.byte	0
 503 005c 00       		.byte	0
 504 005d 00       		.byte	0
 505 005e 00       		.byte	0
 506 005f 00       		.byte	0
 507 0060 00       		.byte	0
 508              		.text
 509              	.Letext0:
 510              		.file 2 ".\\Generated_Source\\PSoC4\\cytypes.h"
 511              		.file 3 ".\\Generated_Source\\PSoC4\\BLE_Stack.h"
 512              		.file 4 ".\\Generated_Source\\PSoC4\\BLE_StackGatt.h"
 513              		.file 5 ".\\Generated_Source\\PSoC4\\BLE_StackGattServer.h"
 514              		.file 6 ".\\Generated_Source\\PSoC4\\BLE_StackGattDb.h"
 515              		.file 7 ".\\Generated_Source\\PSoC4\\BLE.h"
 516              		.file 8 ".\\Generated_Source\\PSoC4\\BLE_gatt.h"
 517              		.file 9 ".\\Generated_Source\\PSoC4\\BLE_dis.h"
 518              		.file 10 ".\\Generated_Source\\PSoC4\\BLE_eventHandler.h"