ARM GAS  C:\Users\user\AppData\Local\Temp\ccCujcud.s 			page 1


   1              		.cpu cortex-m0
   2              		.fpu softvfp
   3              		.eabi_attribute 20, 1
   4              		.eabi_attribute 21, 1
   5              		.eabi_attribute 23, 3
   6              		.eabi_attribute 24, 1
   7              		.eabi_attribute 25, 1
   8              		.eabi_attribute 26, 1
   9              		.eabi_attribute 30, 4
  10              		.eabi_attribute 34, 0
  11              		.eabi_attribute 18, 4
  12              		.code	16
  13              		.file	"main.c"
  14              		.text
  15              	.Ltext0:
  16              		.cfi_sections	.debug_frame
  17              		.section	.text.UserSwitchIsr,"ax",%progbits
  18              		.align	1
  19              		.global	UserSwitchIsr
  20              		.code	16
  21              		.thumb_func
  22              		.type	UserSwitchIsr, %function
  23              	UserSwitchIsr:
  24              	.LFB36:
  25              		.file 1 ".\\main.c"
   1:.\main.c      **** /*******************************************************************************
   2:.\main.c      **** * File Name: main.c
   3:.\main.c      **** *
   4:.\main.c      **** * Version: 1.0
   5:.\main.c      **** *
   6:.\main.c      **** * Description:
   7:.\main.c      **** *  This is the source code for the BLE connection parameters update request demo
   8:.\main.c      **** *  project.
   9:.\main.c      **** *
  10:.\main.c      **** * Hardware Dependency:
  11:.\main.c      **** *  CY8CKIT-042 BLE
  12:.\main.c      **** *
  13:.\main.c      **** ********************************************************************************
  14:.\main.c      **** * Copyright (2015), Cypress Semiconductor Corporation.
  15:.\main.c      **** ******************************************************************************
  16:.\main.c      **** * This software is owned by Cypress Semiconductor Corporation (Cypress) and is
  17:.\main.c      **** * protected by and subject to worldwide patent protection (United States and
  18:.\main.c      **** * foreign), United States copyright laws and international treaty provisions.
  19:.\main.c      **** * Cypress hereby grants to licensee a personal, non-exclusive, non-transferable
  20:.\main.c      **** * license to copy, use, modify, create derivative works of, and compile the
  21:.\main.c      **** * Cypress Source Code and derivative works for the sole purpose of creating
  22:.\main.c      **** * custom software in support of licensee product to be used only in conjunction
  23:.\main.c      **** * with a Cypress integrated circuit as specified in the applicable agreement.
  24:.\main.c      **** * Any reproduction, modification, translation, compilation, or representation of
  25:.\main.c      **** * this software except as specified above is prohibited without the express
  26:.\main.c      **** * written permission of Cypress.
  27:.\main.c      **** *
  28:.\main.c      **** * Disclaimer: CYPRESS MAKES NO WARRANTY OF ANY KIND, EXPRESS OR IMPLIED, WITH
  29:.\main.c      **** * REGARD TO THIS MATERIAL, INCLUDING, BUT NOT LIMITED TO, THE IMPLIED
  30:.\main.c      **** * WARRANTIES OF MERCHANTABILITY AND FITNESS FOR A PARTICULAR PURPOSE.
  31:.\main.c      **** * Cypress reserves the right to make changes without further notice to the
  32:.\main.c      **** * materials described herein. Cypress does not assume any liability arising out
ARM GAS  C:\Users\user\AppData\Local\Temp\ccCujcud.s 			page 2


  33:.\main.c      **** * of the application or use of any product or circuit described herein. Cypress
  34:.\main.c      **** * does not authorize its products for use as critical components in life-support
  35:.\main.c      **** * systems where a malfunction or failure may reasonably be expected to result in
  36:.\main.c      **** * significant injury to the user. The inclusion of Cypress' product in a life-
  37:.\main.c      **** * support systems application implies that the manufacturer assumes all risk of
  38:.\main.c      **** * such use and in doing so indemnifies Cypress against all charges. Use may be
  39:.\main.c      **** * limited by and subject to the applicable Cypress software license agreement.
  40:.\main.c      **** *******************************************************************************/
  41:.\main.c      **** 
  42:.\main.c      **** /*****************************************************************************
  43:.\main.c      **** * Included headers
  44:.\main.c      **** *****************************************************************************/
  45:.\main.c      **** #include <project.h>
  46:.\main.c      **** 
  47:.\main.c      **** 
  48:.\main.c      **** /*****************************************************************************
  49:.\main.c      **** * Connection Parameters structure
  50:.\main.c      **** *****************************************************************************/
  51:.\main.c      **** CYBLE_GAP_CONN_UPDATE_PARAM_T connectionParameters = 
  52:.\main.c      **** {
  53:.\main.c      ****     400,                /* Minimum connection interval - 400 x 1.25 = 500 ms */
  54:.\main.c      ****     400,                /* Maximum connection interval - 400 x 1.25 = 500 ms */
  55:.\main.c      ****     1,                  /* Slave latency - 1 */
  56:.\main.c      ****     500                 /* Supervision timeout - 500 x 10 = 5000 ms */
  57:.\main.c      **** };
  58:.\main.c      **** 
  59:.\main.c      **** 
  60:.\main.c      **** /*****************************************************************************
  61:.\main.c      **** * Function Definitions
  62:.\main.c      **** *****************************************************************************/
  63:.\main.c      **** 
  64:.\main.c      **** 
  65:.\main.c      **** /*****************************************************************************
  66:.\main.c      **** * Function Name: StackEventHandler()
  67:.\main.c      **** ******************************************************************************
  68:.\main.c      **** * Summary:
  69:.\main.c      **** * Event handler for the BLE events processing.
  70:.\main.c      **** *
  71:.\main.c      **** * Parameters:
  72:.\main.c      **** * uint32 eventCode: The event to be processed
  73:.\main.c      **** * void * eventParam: Pointer to hold the additional information associated 
  74:.\main.c      **** *                    with an event
  75:.\main.c      **** *
  76:.\main.c      **** * Return:
  77:.\main.c      **** * None
  78:.\main.c      **** *
  79:.\main.c      **** * Theory:
  80:.\main.c      **** * The function is responsible for handling the events generated by the stack.
  81:.\main.c      **** * In addition to handling general events for BLE advertisement, connection, 
  82:.\main.c      **** * and disconnection, this function handles the BLE connection parameter
  83:.\main.c      **** * update response event.
  84:.\main.c      **** *
  85:.\main.c      **** * Side Effects:
  86:.\main.c      **** * None
  87:.\main.c      **** *
  88:.\main.c      **** *****************************************************************************/
  89:.\main.c      **** void StackEventHandler(uint32 eventCode, void * eventParam)
ARM GAS  C:\Users\user\AppData\Local\Temp\ccCujcud.s 			page 3


  90:.\main.c      **** {
  91:.\main.c      ****     static uint8 ledToggle = 0;
  92:.\main.c      ****     
  93:.\main.c      ****     switch(eventCode)
  94:.\main.c      ****     {
  95:.\main.c      ****         /* Stack is initialized. Start advertisement. */
  96:.\main.c      ****         case CYBLE_EVT_STACK_ON:
  97:.\main.c      ****             CyBle_GappStartAdvertisement(CYBLE_ADVERTISING_FAST);
  98:.\main.c      **** 
  99:.\main.c      ****             /* Turn OFF all LEDs */
 100:.\main.c      ****             Led_Red_Write(1);
 101:.\main.c      ****             Led_Green_Write(1);
 102:.\main.c      ****             Led_Blue_Write(1);
 103:.\main.c      ****             break;
 104:.\main.c      ****             
 105:.\main.c      ****         /* Advertisement timed out. Restart advertisement. */
 106:.\main.c      ****         case CYBLE_EVT_GAPP_ADVERTISEMENT_START_STOP:
 107:.\main.c      ****             if(CyBle_GetState() == CYBLE_STATE_DISCONNECTED)
 108:.\main.c      ****             {
 109:.\main.c      ****                 CyBle_GappStartAdvertisement(CYBLE_ADVERTISING_FAST);
 110:.\main.c      ****             }
 111:.\main.c      ****             break;
 112:.\main.c      ****             
 113:.\main.c      ****         /* Device is disconnected. Restart advertisement. */
 114:.\main.c      ****         case CYBLE_EVT_GAP_DEVICE_DISCONNECTED:
 115:.\main.c      ****             CyBle_GappStartAdvertisement(CYBLE_ADVERTISING_FAST);
 116:.\main.c      **** 
 117:.\main.c      ****             /* Turn OFF all LEDs */
 118:.\main.c      ****             Led_Red_Write(1);
 119:.\main.c      ****             Led_Green_Write(1);
 120:.\main.c      ****             Led_Blue_Write(1);
 121:.\main.c      ****             break;
 122:.\main.c      **** 
 123:.\main.c      ****             
 124:.\main.c      ****         /* This event is generated when a response is received for the 
 125:.\main.c      ****          * connection parameter update request.
 126:.\main.c      ****          * If the request is accepted by the Master, one of the Green and Blue
 127:.\main.c      ****          * LEDs is turned ON. Each time the SW2 switch is pressed, a new request
 128:.\main.c      ****          * is sent to the Master, and upon every acceptance, the LED toggles 
 129:.\main.c      ****          * between Green and Blue color.
 130:.\main.c      ****          * If the request is rejected by the Master, the Green and Blue LEDs are
 131:.\main.c      ****          * turned OFF and the Red LED is turned ON.
 132:.\main.c      ****          */
 133:.\main.c      ****         case CYBLE_EVT_L2CAP_CONN_PARAM_UPDATE_RSP:
 134:.\main.c      ****             if(*(uint8 *)eventParam == 0x00)
 135:.\main.c      ****             {
 136:.\main.c      ****                 /* Connection parameter update request accepted by Master */
 137:.\main.c      **** 
 138:.\main.c      ****                 /* Turn OFF Red LED */
 139:.\main.c      ****                 Led_Red_Write(1);
 140:.\main.c      ****                 
 141:.\main.c      ****                 /* Toggle between Green and Blue LED */
 142:.\main.c      ****                 if(ledToggle == 0)
 143:.\main.c      ****                 {
 144:.\main.c      ****                     ledToggle = 1;
 145:.\main.c      ****                     Led_Blue_Write(1);
 146:.\main.c      ****                     Led_Green_Write(0);
ARM GAS  C:\Users\user\AppData\Local\Temp\ccCujcud.s 			page 4


 147:.\main.c      ****                 }
 148:.\main.c      ****                 else if(ledToggle == 1)
 149:.\main.c      ****                 {
 150:.\main.c      ****                     ledToggle = 0;
 151:.\main.c      ****                     Led_Green_Write(1);
 152:.\main.c      ****                     Led_Blue_Write(0);
 153:.\main.c      ****                 }
 154:.\main.c      ****             }
 155:.\main.c      ****             else if(*(uint8 *)eventParam == 0x01)
 156:.\main.c      ****             {
 157:.\main.c      ****                 /* Connection parameter update request rejected by Master */
 158:.\main.c      ****                 
 159:.\main.c      ****                 /* Turn ON Red LED; Turn OFF Green and Blue LEDs */
 160:.\main.c      ****                 Led_Green_Write(1);
 161:.\main.c      ****                 Led_Blue_Write(1);
 162:.\main.c      ****                 Led_Red_Write(0);
 163:.\main.c      ****             }
 164:.\main.c      ****             break;
 165:.\main.c      ****             
 166:.\main.c      ****         default:
 167:.\main.c      ****             break;
 168:.\main.c      ****     }
 169:.\main.c      **** }
 170:.\main.c      **** 
 171:.\main.c      **** 
 172:.\main.c      **** /*****************************************************************************
 173:.\main.c      **** * Function Name: UserSwitchIsr()
 174:.\main.c      **** ******************************************************************************
 175:.\main.c      **** * Summary:
 176:.\main.c      **** * ISR for the user switch GPIO interrupt.
 177:.\main.c      **** *
 178:.\main.c      **** * Parameters:
 179:.\main.c      **** * None
 180:.\main.c      **** *
 181:.\main.c      **** * Return:
 182:.\main.c      **** * None
 183:.\main.c      **** *
 184:.\main.c      **** * Theory:
 185:.\main.c      **** * This ISR is triggered everytime the SW2 switch is pressed on the
 186:.\main.c      **** * CY8CKIT-042 BLE Pioneer Kit. If the device is connected to a peer BLE device,
 187:.\main.c      **** * a connection parameter update request is sent to the peer device. The 
 188:.\main.c      **** * parameters are defined in the structure 'connectionParameters' defined above 
 189:.\main.c      **** * in this file.
 190:.\main.c      **** *
 191:.\main.c      **** * Side Effects:
 192:.\main.c      **** * None
 193:.\main.c      **** *
 194:.\main.c      **** *****************************************************************************/
 195:.\main.c      **** CY_ISR(UserSwitchIsr)
 196:.\main.c      **** {
  26              		.loc 1 196 0
  27              		.cfi_startproc
  28 0000 08B5     		push	{r3, lr}
  29              		.cfi_def_cfa_offset 8
  30              		.cfi_offset 3, -8
  31              		.cfi_offset 14, -4
 197:.\main.c      ****     /* On every switch press, if the device is connected, send a BLE
ARM GAS  C:\Users\user\AppData\Local\Temp\ccCujcud.s 			page 5


 198:.\main.c      ****      * connection parameter update request. 
 199:.\main.c      ****      */
 200:.\main.c      ****     if(CyBle_GetState() == CYBLE_STATE_CONNECTED)
  32              		.loc 1 200 0
  33 0002 064B     		ldr	r3, .L4
  34 0004 1B78     		ldrb	r3, [r3]
  35 0006 022B     		cmp	r3, #2
  36 0008 04D1     		bne	.L2
 201:.\main.c      ****     {
 202:.\main.c      ****         /* The parameters to the API are  - 
 203:.\main.c      ****          * 1. Peer device's BD handle
 204:.\main.c      ****          * 2. Pointer to 'connectionParameters' structure defined in this file
 205:.\main.c      ****          */
 206:.\main.c      ****         CyBle_L2capLeConnectionParamUpdateRequest(cyBle_connHandle.bdHandle, &connectionParameters)
  37              		.loc 1 206 0
  38 000a 054B     		ldr	r3, .L4+4
  39 000c 0549     		ldr	r1, .L4+8
  40 000e 1878     		ldrb	r0, [r3]
  41 0010 FFF7FEFF 		bl	CyBle_L2capLeConnectionParamUpdateRequest
  42              	.LVL0:
  43              	.L2:
 207:.\main.c      ****     }
 208:.\main.c      ****     
 209:.\main.c      ****     /* Clear pending interrupt */
 210:.\main.c      ****     SW2_ClearInterrupt();
  44              		.loc 1 210 0
  45 0014 FFF7FEFF 		bl	SW2_ClearInterrupt
  46              	.LVL1:
 211:.\main.c      **** }
  47              		.loc 1 211 0
  48              		@ sp needed
  49 0018 08BD     		pop	{r3, pc}
  50              	.L5:
  51 001a C046     		.align	2
  52              	.L4:
  53 001c 00000000 		.word	cyBle_state
  54 0020 00000000 		.word	cyBle_connHandle
  55 0024 00000000 		.word	.LANCHOR0
  56              		.cfi_endproc
  57              	.LFE36:
  58              		.size	UserSwitchIsr, .-UserSwitchIsr
  59              		.section	.text.StackEventHandler,"ax",%progbits
  60              		.align	1
  61              		.global	StackEventHandler
  62              		.code	16
  63              		.thumb_func
  64              		.type	StackEventHandler, %function
  65              	StackEventHandler:
  66              	.LFB35:
  90:.\main.c      **** {
  67              		.loc 1 90 0
  68              		.cfi_startproc
  69              	.LVL2:
  70 0000 38B5     		push	{r3, r4, r5, lr}
  71              		.cfi_def_cfa_offset 16
  72              		.cfi_offset 3, -16
  73              		.cfi_offset 4, -12
ARM GAS  C:\Users\user\AppData\Local\Temp\ccCujcud.s 			page 6


  74              		.cfi_offset 5, -8
  75              		.cfi_offset 14, -4
  90:.\main.c      **** {
  76              		.loc 1 90 0
  77 0002 041E     		sub	r4, r0, #0
  93:.\main.c      ****     switch(eventCode)
  78              		.loc 1 93 0
  79 0004 262C     		cmp	r4, #38
  80 0006 10D0     		beq	.L8
  81 0008 2628     		cmp	r0, #38
  82 000a 09D8     		bhi	.L9
  83 000c 0128     		cmp	r0, #1
  84 000e 46D1     		bne	.L6
  97:.\main.c      ****             CyBle_GappStartAdvertisement(CYBLE_ADVERTISING_FAST);
  85              		.loc 1 97 0
  86 0010 0020     		mov	r0, #0
  87              	.LVL3:
  88 0012 FFF7FEFF 		bl	CyBle_GappStartAdvertisement
  89              	.LVL4:
 100:.\main.c      ****             Led_Red_Write(1);
  90              		.loc 1 100 0
  91 0016 201C     		mov	r0, r4
  92 0018 FFF7FEFF 		bl	Led_Red_Write
  93              	.LVL5:
 101:.\main.c      ****             Led_Green_Write(1);
  94              		.loc 1 101 0
  95 001c 201C     		mov	r0, r4
  96 001e 2FE0     		b	.L18
  97              	.LVL6:
  98              	.L9:
  93:.\main.c      ****     switch(eventCode)
  99              		.loc 1 93 0
 100 0020 2828     		cmp	r0, #40
 101 0022 0AD0     		beq	.L11
 102 0024 7128     		cmp	r0, #113
 103 0026 15D0     		beq	.L12
 104 0028 39E0     		b	.L6
 105              	.L8:
 107:.\main.c      ****             if(CyBle_GetState() == CYBLE_STATE_DISCONNECTED)
 106              		.loc 1 107 0
 107 002a 1D4B     		ldr	r3, .L19
 108 002c 1B78     		ldrb	r3, [r3]
 109 002e 042B     		cmp	r3, #4
 110 0030 35D1     		bne	.L6
 109:.\main.c      ****                 CyBle_GappStartAdvertisement(CYBLE_ADVERTISING_FAST);
 111              		.loc 1 109 0
 112 0032 0020     		mov	r0, #0
 113 0034 FFF7FEFF 		bl	CyBle_GappStartAdvertisement
 114              	.LVL7:
 115 0038 31E0     		b	.L6
 116              	.LVL8:
 117              	.L11:
 115:.\main.c      ****             CyBle_GappStartAdvertisement(CYBLE_ADVERTISING_FAST);
 118              		.loc 1 115 0
 119 003a 0020     		mov	r0, #0
 120              	.LVL9:
 121 003c FFF7FEFF 		bl	CyBle_GappStartAdvertisement
ARM GAS  C:\Users\user\AppData\Local\Temp\ccCujcud.s 			page 7


 122              	.LVL10:
 118:.\main.c      ****             Led_Red_Write(1);
 123              		.loc 1 118 0
 124 0040 0120     		mov	r0, #1
 125 0042 FFF7FEFF 		bl	Led_Red_Write
 126              	.LVL11:
 119:.\main.c      ****             Led_Green_Write(1);
 127              		.loc 1 119 0
 128 0046 0120     		mov	r0, #1
 129 0048 FFF7FEFF 		bl	Led_Green_Write
 130              	.LVL12:
 120:.\main.c      ****             Led_Blue_Write(1);
 131              		.loc 1 120 0
 132 004c 0120     		mov	r0, #1
 133              	.LVL13:
 134              	.L17:
 135 004e FFF7FEFF 		bl	Led_Blue_Write
 136              	.LVL14:
 121:.\main.c      ****             break;
 137              		.loc 1 121 0
 138 0052 24E0     		b	.L6
 139              	.LVL15:
 140              	.L12:
 141              	.LBB4:
 142              	.LBB5:
 134:.\main.c      ****             if(*(uint8 *)eventParam == 0x00)
 143              		.loc 1 134 0
 144 0054 0C78     		ldrb	r4, [r1]
 145 0056 002C     		cmp	r4, #0
 146 0058 16D1     		bne	.L14
 139:.\main.c      ****                 Led_Red_Write(1);
 147              		.loc 1 139 0
 148 005a 0120     		mov	r0, #1
 149              	.LVL16:
 150 005c FFF7FEFF 		bl	Led_Red_Write
 151              	.LVL17:
 142:.\main.c      ****                 if(ledToggle == 0)
 152              		.loc 1 142 0
 153 0060 104B     		ldr	r3, .L19+4
 154 0062 1D78     		ldrb	r5, [r3]
 155 0064 002D     		cmp	r5, #0
 156 0066 07D1     		bne	.L15
 144:.\main.c      ****                     ledToggle = 1;
 157              		.loc 1 144 0
 158 0068 0120     		mov	r0, #1
 159 006a 1870     		strb	r0, [r3]
 145:.\main.c      ****                     Led_Blue_Write(1);
 160              		.loc 1 145 0
 161 006c FFF7FEFF 		bl	Led_Blue_Write
 162              	.LVL18:
 146:.\main.c      ****                     Led_Green_Write(0);
 163              		.loc 1 146 0
 164 0070 281C     		mov	r0, r5
 165 0072 FFF7FEFF 		bl	Led_Green_Write
 166              	.LVL19:
 167 0076 12E0     		b	.L6
 168              	.L15:
ARM GAS  C:\Users\user\AppData\Local\Temp\ccCujcud.s 			page 8


 148:.\main.c      ****                 else if(ledToggle == 1)
 169              		.loc 1 148 0
 170 0078 012D     		cmp	r5, #1
 171 007a 10D1     		bne	.L6
 150:.\main.c      ****                     ledToggle = 0;
 172              		.loc 1 150 0
 173 007c 1C70     		strb	r4, [r3]
 151:.\main.c      ****                     Led_Green_Write(1);
 174              		.loc 1 151 0
 175 007e 281C     		mov	r0, r5
 176              	.LVL20:
 177              	.L18:
 178 0080 FFF7FEFF 		bl	Led_Green_Write
 179              	.LVL21:
 152:.\main.c      ****                     Led_Blue_Write(0);
 180              		.loc 1 152 0
 181 0084 201C     		mov	r0, r4
 182 0086 E2E7     		b	.L17
 183              	.LVL22:
 184              	.L14:
 155:.\main.c      ****             else if(*(uint8 *)eventParam == 0x01)
 185              		.loc 1 155 0
 186 0088 012C     		cmp	r4, #1
 187 008a 08D1     		bne	.L6
 160:.\main.c      ****                 Led_Green_Write(1);
 188              		.loc 1 160 0
 189 008c 201C     		mov	r0, r4
 190              	.LVL23:
 191 008e FFF7FEFF 		bl	Led_Green_Write
 192              	.LVL24:
 161:.\main.c      ****                 Led_Blue_Write(1);
 193              		.loc 1 161 0
 194 0092 201C     		mov	r0, r4
 195 0094 FFF7FEFF 		bl	Led_Blue_Write
 196              	.LVL25:
 162:.\main.c      ****                 Led_Red_Write(0);
 197              		.loc 1 162 0
 198 0098 0020     		mov	r0, #0
 199 009a FFF7FEFF 		bl	Led_Red_Write
 200              	.LVL26:
 201              	.L6:
 202              	.LBE5:
 203              	.LBE4:
 169:.\main.c      **** }
 204              		.loc 1 169 0
 205              		@ sp needed
 206 009e 38BD     		pop	{r3, r4, r5, pc}
 207              	.L20:
 208              		.align	2
 209              	.L19:
 210 00a0 00000000 		.word	cyBle_state
 211 00a4 00000000 		.word	.LANCHOR1
 212              		.cfi_endproc
 213              	.LFE35:
 214              		.size	StackEventHandler, .-StackEventHandler
 215              		.section	.text.startup.main,"ax",%progbits
 216              		.align	1
ARM GAS  C:\Users\user\AppData\Local\Temp\ccCujcud.s 			page 9


 217              		.global	main
 218              		.code	16
 219              		.thumb_func
 220              		.type	main, %function
 221              	main:
 222              	.LFB37:
 212:.\main.c      **** 
 213:.\main.c      **** 
 214:.\main.c      **** /*****************************************************************************
 215:.\main.c      **** * Function Name: main()
 216:.\main.c      **** ******************************************************************************
 217:.\main.c      **** * Summary:
 218:.\main.c      **** * Main function for the application.
 219:.\main.c      **** *
 220:.\main.c      **** * Parameters:
 221:.\main.c      **** * None
 222:.\main.c      **** *
 223:.\main.c      **** * Return:
 224:.\main.c      **** * None
 225:.\main.c      **** *
 226:.\main.c      **** * Theory:
 227:.\main.c      **** * This function initializes the BLE component and the SW2 switch interrupt, 
 228:.\main.c      **** * and then processes the BLE events routinely, while also implementing low
 229:.\main.c      **** * power in the system.
 230:.\main.c      **** *
 231:.\main.c      **** * Side Effects:
 232:.\main.c      **** * None
 233:.\main.c      **** *
 234:.\main.c      **** *****************************************************************************/
 235:.\main.c      **** int main()
 236:.\main.c      **** {
 223              		.loc 1 236 0
 224              		.cfi_startproc
 225 0000 38B5     		push	{r3, r4, r5, lr}
 226              		.cfi_def_cfa_offset 16
 227              		.cfi_offset 3, -16
 228              		.cfi_offset 4, -12
 229              		.cfi_offset 5, -8
 230              		.cfi_offset 14, -4
 237:.\main.c      ****     CYBLE_LP_MODE_T bleState;
 238:.\main.c      ****     uint8 interruptStatus;
 239:.\main.c      **** 
 240:.\main.c      ****     /* Enable global interrupts */
 241:.\main.c      ****     CyGlobalIntEnable; 
 231              		.loc 1 241 0
 232              	@ 241 ".\main.c" 1
 233 0002 62B6     		CPSIE   i
 234              	@ 0 "" 2
 242:.\main.c      ****     
 243:.\main.c      ****     /* Start BLE component */
 244:.\main.c      ****     CyBle_Start(StackEventHandler);
 235              		.loc 1 244 0
 236              		.code	16
 237 0004 1348     		ldr	r0, .L34
 238 0006 FFF7FEFF 		bl	CyBle_Start
 239              	.LVL27:
 245:.\main.c      ****     
ARM GAS  C:\Users\user\AppData\Local\Temp\ccCujcud.s 			page 10


 246:.\main.c      ****     /* Configure User switch interrupt */
 247:.\main.c      ****     SW2_Interrupt_StartEx(UserSwitchIsr);
 240              		.loc 1 247 0
 241 000a 1348     		ldr	r0, .L34+4
 242 000c FFF7FEFF 		bl	SW2_Interrupt_StartEx
 243              	.LVL28:
 244              	.L27:
 248:.\main.c      ****     
 249:.\main.c      ****     for(;;)
 250:.\main.c      ****     {
 251:.\main.c      ****         /* Routinely called every connection interval to process
 252:.\main.c      ****          * pending BLE events. */
 253:.\main.c      ****         CyBle_ProcessEvents();
 245              		.loc 1 253 0
 246 0010 FFF7FEFF 		bl	CyBle_ProcessEvents
 247              	.LVL29:
 254:.\main.c      ****         
 255:.\main.c      ****         
 256:.\main.c      ****         /* Low Power Implementation with BLE */
 257:.\main.c      ****         bleState = CyBle_EnterLPM(CYBLE_BLESS_DEEPSLEEP);
 248              		.loc 1 257 0
 249 0014 0320     		mov	r0, #3
 250 0016 FFF7FEFF 		bl	CyBle_EnterLPM
 251              	.LVL30:
 252 001a 051C     		mov	r5, r0
 253              	.LVL31:
 258:.\main.c      ****         interruptStatus = CyEnterCriticalSection();
 254              		.loc 1 258 0
 255 001c FFF7FEFF 		bl	CyEnterCriticalSection
 256              	.LVL32:
 257 0020 041C     		mov	r4, r0
 258              	.LVL33:
 259:.\main.c      ****         if(bleState == CYBLE_BLESS_DEEPSLEEP)
 259              		.loc 1 259 0
 260 0022 032D     		cmp	r5, #3
 261 0024 0BD1     		bne	.L22
 260:.\main.c      ****         {
 261:.\main.c      ****             if((CyBle_GetBleSsState() == CYBLE_BLESS_STATE_ECO_ON) || 
 262              		.loc 1 261 0
 263 0026 FFF7FEFF 		bl	CyBle_GetBleSsState
 264              	.LVL34:
 265 002a 0428     		cmp	r0, #4
 266 002c 02D1     		bne	.L23
 267              	.L25:
 262:.\main.c      ****                (CyBle_GetBleSsState() == CYBLE_BLESS_STATE_DEEPSLEEP))
 263:.\main.c      ****             {
 264:.\main.c      ****                 CySysPmDeepSleep();
 268              		.loc 1 264 0
 269 002e FFF7FEFF 		bl	CySysPmDeepSleep
 270              	.LVL35:
 271 0032 0AE0     		b	.L24
 272              	.L23:
 262:.\main.c      ****                (CyBle_GetBleSsState() == CYBLE_BLESS_STATE_DEEPSLEEP))
 273              		.loc 1 262 0 discriminator 1
 274 0034 FFF7FEFF 		bl	CyBle_GetBleSsState
 275              	.LVL36:
 261:.\main.c      ****             if((CyBle_GetBleSsState() == CYBLE_BLESS_STATE_ECO_ON) || 
ARM GAS  C:\Users\user\AppData\Local\Temp\ccCujcud.s 			page 11


 276              		.loc 1 261 0 discriminator 1
 277 0038 0628     		cmp	r0, #6
 278 003a 06D1     		bne	.L24
 279 003c F7E7     		b	.L25
 280              	.LVL37:
 281              	.L22:
 265:.\main.c      ****             }
 266:.\main.c      ****         }
 267:.\main.c      ****         else
 268:.\main.c      ****         {
 269:.\main.c      ****             if(CyBle_GetBleSsState() != CYBLE_BLESS_STATE_EVENT_CLOSE)
 282              		.loc 1 269 0
 283 003e FFF7FEFF 		bl	CyBle_GetBleSsState
 284              	.LVL38:
 285 0042 0228     		cmp	r0, #2
 286 0044 01D0     		beq	.L24
 270:.\main.c      ****             {
 271:.\main.c      ****                 CySysPmSleep();
 287              		.loc 1 271 0
 288 0046 FFF7FEFF 		bl	CySysPmSleep
 289              	.LVL39:
 290              	.L24:
 272:.\main.c      ****             }
 273:.\main.c      ****         }
 274:.\main.c      ****         CyExitCriticalSection(interruptStatus);
 291              		.loc 1 274 0
 292 004a 201C     		mov	r0, r4
 293 004c FFF7FEFF 		bl	CyExitCriticalSection
 294              	.LVL40:
 275:.\main.c      ****         
 276:.\main.c      ****     }
 295              		.loc 1 276 0
 296 0050 DEE7     		b	.L27
 297              	.L35:
 298 0052 C046     		.align	2
 299              	.L34:
 300 0054 00000000 		.word	StackEventHandler
 301 0058 00000000 		.word	UserSwitchIsr
 302              		.cfi_endproc
 303              	.LFE37:
 304              		.size	main, .-main
 305              		.global	connectionParameters
 306              		.data
 307              		.align	1
 308              		.set	.LANCHOR0,. + 0
 309              		.type	connectionParameters, %object
 310              		.size	connectionParameters, 8
 311              	connectionParameters:
 312 0000 9001     		.short	400
 313 0002 9001     		.short	400
 314 0004 0100     		.short	1
 315 0006 F401     		.short	500
 316              		.bss
 317              		.set	.LANCHOR1,. + 0
 318              		.type	ledToggle.6250, %object
 319              		.size	ledToggle.6250, 1
 320              	ledToggle.6250:
ARM GAS  C:\Users\user\AppData\Local\Temp\ccCujcud.s 			page 12


 321 0000 00       		.space	1
 322              		.text
 323              	.Letext0:
 324              		.file 2 "Generated_Source\\PSoC4/cytypes.h"
 325              		.file 3 "Generated_Source\\PSoC4/BLE_Stack.h"
 326              		.file 4 "Generated_Source\\PSoC4/BLE_StackGap.h"
 327              		.file 5 "Generated_Source\\PSoC4/BLE_StackGatt.h"
 328              		.file 6 "Generated_Source\\PSoC4/BLE.h"
 329              		.file 7 "Generated_Source\\PSoC4/BLE_dis.h"
 330              		.file 8 "Generated_Source\\PSoC4/BLE_eventHandler.h"
 331              		.file 9 "Generated_Source\\PSoC4/Led_Red.h"
 332              		.file 10 "Generated_Source\\PSoC4/Led_Blue.h"
 333              		.file 11 "Generated_Source\\PSoC4/Led_Green.h"
 334              		.file 12 "Generated_Source\\PSoC4/BLE_StackL2cap.h"
 335              		.file 13 "Generated_Source\\PSoC4/SW2_Interrupt.h"
 336              		.file 14 "Generated_Source\\PSoC4/SW2.h"
 337              		.file 15 "Generated_Source\\PSoC4/CyLib.h"
 338              		.file 16 "Generated_Source\\PSoC4/cyPm.h"